target datalayout = "e-m:e-p270:32:32-p271:32:32-p272:64:64-i64:64-i128:128-f80:128-n8:16:32:64-S128"
target triple = "x86_64-pc-linux-gnu"

%"class.Imf_3_4::TypedAttribute" = type <{ %"class.Imf_3_4::Attribute", i32, [4 x i8] }>
%"class.Imf_3_4::Attribute" = type { ptr }

@_ZTIN7Imf_3_49AttributeE = external constant ptr
@_ZTIN7Imf_3_414TypedAttributeINS_14DeepImageStateEEE = weak_odr constant { ptr, ptr, ptr } { ptr getelementptr inbounds (ptr, ptr @_ZTVN10__cxxabiv120__si_class_type_infoE, i64 2), ptr @_ZTSN7Imf_3_414TypedAttributeINS_14DeepImageStateEEE, ptr @_ZTIN7Imf_3_49AttributeE }, comdat, align 8
@.str = private unnamed_addr constant [27 x i8] c"Unexpected attribute type.\00", align 1
@_ZTIN7Iex_3_47TypeExcE = external constant ptr

; Function Attrs: mustprogress uwtable
define weak_odr noundef ptr @_ZN7Imf_3_414TypedAttributeINS_14DeepImageStateEE4castEPKNS_9AttributeE(ptr noundef %0) #4 comdat align 2 personality ptr @__gxx_personality_v0 {
  %2 = alloca ptr, align 8
  %3 = alloca ptr, align 8
  %4 = alloca ptr, align 8
  %5 = alloca i32, align 4
  store ptr %0, ptr %2, align 8, !tbaa !16
  call void @llvm.lifetime.start.p0(i64 8, ptr %3) #3
  %6 = load ptr, ptr %2, align 8, !tbaa !16
  %7 = icmp eq ptr %6, null
  br i1 %7, label %10, label %8

8:                                                ; preds = %1
  %9 = call ptr @__dynamic_cast(ptr %6, ptr @_ZTIN7Imf_3_49AttributeE, ptr @_ZTIN7Imf_3_414TypedAttributeINS_14DeepImageStateEEE, i64 0) #3
  br label %11

10:                                               ; preds = %1
  br label %11

11:                                               ; preds = %10, %8
  %12 = phi ptr [ %9, %8 ], [ null, %10 ]
  store ptr %12, ptr %3, align 8, !tbaa !3
  %13 = load ptr, ptr %3, align 8, !tbaa !3
  %14 = icmp eq ptr %13, null
  br i1 %14, label %15, label %22

15:                                               ; preds = %11
  %16 = call ptr @__cxa_allocate_exception(i64 72) #3
  invoke void @_ZN7Iex_3_47TypeExcC1EPKc(ptr noundef nonnull align 8 dereferenceable(72) %16, ptr noundef @.str)
          to label %17 unwind label %18

17:                                               ; preds = %15
  call void @__cxa_throw(ptr %16, ptr @_ZTIN7Iex_3_47TypeExcE, ptr @_ZN7Iex_3_47TypeExcD1Ev) #15
  unreachable

18:                                               ; preds = %15
  %19 = landingpad { ptr, i32 }
          cleanup
  %20 = extractvalue { ptr, i32 } %19, 0
  store ptr %20, ptr %4, align 8
  %21 = extractvalue { ptr, i32 } %19, 1
  store i32 %21, ptr %5, align 4
  call void @__cxa_free_exception(ptr %16) #3
  call void @llvm.lifetime.end.p0(i64 8, ptr %3) #3
  br label %24

22:                                               ; preds = %11
  %23 = load ptr, ptr %3, align 8, !tbaa !3
  call void @llvm.lifetime.end.p0(i64 8, ptr %3) #3
  ret ptr %23

24:                                               ; preds = %18
  %25 = load ptr, ptr %4, align 8
  %26 = load i32, ptr %5, align 4
  %27 = insertvalue { ptr, i32 } poison, ptr %25, 0
  %28 = insertvalue { ptr, i32 } %27, i32 %26, 1
  resume { ptr, i32 } %28
}

; Function Attrs: inlinehint mustprogress nounwind uwtable
define weak_odr noundef nonnull align 4 dereferenceable(4) ptr @_ZNK7Imf_3_414TypedAttributeINS_14DeepImageStateEE5valueEv(ptr noundef nonnull align 8 dereferenceable(12) %0) #7 comdat align 2 {
  %2 = alloca ptr, align 8
  store ptr %0, ptr %2, align 8, !tbaa !3
  %3 = load ptr, ptr %2, align 8
  %4 = getelementptr inbounds nuw %"class.Imf_3_4::TypedAttribute", ptr %3, i32 0, i32 1
  ret ptr %4
}

; Function Attrs: inlinehint mustprogress uwtable
define weak_odr noundef nonnull align 8 dereferenceable(12) ptr @_ZN7Imf_3_414TypedAttributeINS_14DeepImageStateEE4castERKNS_9AttributeE(ptr noundef nonnull align 8 dereferenceable(8) %0) #12 comdat align 2 {
  %2 = alloca ptr, align 8
  store ptr %0, ptr %2, align 8, !tbaa !16
  %3 = load ptr, ptr %2, align 8, !tbaa !16
  %4 = call noundef ptr @_ZN7Imf_3_414TypedAttributeINS_14DeepImageStateEE4castEPKNS_9AttributeE(ptr noundef %3)
  ret ptr %4
}

; Function Attrs: mustprogress uwtable
define void @_ZN7Imf_3_414TypedAttributeINS_14DeepImageStateEE13copyValueFromERKNS_9AttributeE(ptr noundef nonnull align 8 dereferenceable(12) %0, ptr noundef nonnull align 8 dereferenceable(8) %1) unnamed_addr #4 align 2 {
  %3 = alloca ptr, align 8
  %4 = alloca ptr, align 8
  store ptr %0, ptr %3, align 8, !tbaa !3
  store ptr %1, ptr %4, align 8, !tbaa !16
  %5 = load ptr, ptr %3, align 8
  %6 = load ptr, ptr %4, align 8, !tbaa !16
  %7 = call noundef nonnull align 8 dereferenceable(12) ptr @_ZN7Imf_3_414TypedAttributeINS_14DeepImageStateEE4castERKNS_9AttributeE(ptr noundef nonnull align 8 dereferenceable(8) %6)
  %8 = call noundef nonnull align 4 dereferenceable(4) ptr @_ZNK7Imf_3_414TypedAttributeINS_14DeepImageStateEE5valueEv(ptr noundef nonnull align 8 dereferenceable(12) %7)
  %9 = load i32, ptr %8, align 4, !tbaa !11
  %10 = getelementptr inbounds nuw %"class.Imf_3_4::TypedAttribute", ptr %5, i32 0, i32 1
  store i32 %9, ptr %10, align 8, !tbaa !13
  ret void
}