; Function Attrs: mustprogress uwtable
define void @_ZN7Imf_3_414TypedAttributeINS_14DeepImageStateEE13copyValueFromERKNS_9AttributeE(ptr noundef nonnull writeonly align 8 captures(none) dereferenceable(12) %0, ptr noundef nonnull readonly align 8 dereferenceable(8) %1) unnamed_addr #3 align 2 personality ptr @__gxx_personality_v0 {
  %3 = tail call ptr @__dynamic_cast(ptr nonnull align 8 dereferenceable(8) %1, ptr nonnull @_ZTIN7Imf_3_49AttributeE, ptr nonnull @_ZTIN7Imf_3_414TypedAttributeINS_14DeepImageStateEEE, i64 0) #15
  %4 = icmp eq ptr %3, null
  br i1 %4, label %.thread.i.i, label %_ZN7Imf_3_414TypedAttributeINS_14DeepImageStateEE4castERKNS_9AttributeE.exit

.thread.i.i:                                      ; preds = %2
  %5 = tail call ptr @__cxa_allocate_exception(i64 72) #15
  invoke void @_ZN7Iex_3_47TypeExcC1EPKc(ptr noundef nonnull align 8 dereferenceable(72) %5, ptr noundef nonnull @.str)
          to label %6 unwind label %7

6:                                                ; preds = %.thread.i.i
  tail call void @__cxa_throw(ptr nonnull %5, ptr nonnull @_ZTIN7Iex_3_47TypeExcE, ptr nonnull @_ZN7Iex_3_47TypeExcD1Ev) #18
  unreachable

7:                                                ; preds = %.thread.i.i
  %8 = landingpad { ptr, i32 }
          cleanup
  tail call void @__cxa_free_exception(ptr nonnull %5) #15
  resume { ptr, i32 } %8

_ZN7Imf_3_414TypedAttributeINS_14DeepImageStateEE4castERKNS_9AttributeE.exit: ; preds = %2
  %9 = getelementptr inbounds nuw i8, ptr %3, i64 8
  %10 = load i32, ptr %9, align 4, !tbaa !6
  %11 = getelementptr inbounds nuw i8, ptr %0, i64 8
  store i32 %10, ptr %11, align 8, !tbaa !9
  ret void
}